target datalayout = "e-m:e-p270:32:32-p271:32:32-p272:64:64-i64:64-i128:128-f80:128-n8:16:32:64-S128"
target triple = "x86_64-pc-linux-gnu"

%"class.llvm::ArrayRef.775" = type { ptr, i64 }

; Function Attrs: mustprogress nounwind uwtable
define linkonce_odr hidden noundef ptr @_ZNK4llvm8ArrayRefIPNS_13CodeViewDebug12LexicalBlockEE3endEv(ptr noundef nonnull align 8 dereferenceable(16) %0) #0 comdat align 2 {
  %2 = alloca ptr, align 8
  store ptr %0, ptr %2, align 8
  %3 = load ptr, ptr %2, align 8
  %4 = getelementptr inbounds nuw %"class.llvm::ArrayRef.775", ptr %3, i32 0, i32 0
  %5 = load ptr, ptr %4, align 8
  %6 = getelementptr inbounds nuw %"class.llvm::ArrayRef.775", ptr %3, i32 0, i32 1
  %7 = load i64, ptr %6, align 8
  %8 = getelementptr inbounds ptr, ptr %5, i64 %7
  ret ptr %8
}

; Function Attrs: mustprogress nounwind uwtable
define linkonce_odr hidden noundef ptr @_ZNK4llvm8ArrayRefIPNS_13CodeViewDebug12LexicalBlockEE5beginEv(ptr noundef nonnull align 8 dereferenceable(16) %0) #0 comdat align 2 {
  %2 = alloca ptr, align 8
  store ptr %0, ptr %2, align 8
  %3 = load ptr, ptr %2, align 8
  %4 = getelementptr inbounds nuw %"class.llvm::ArrayRef.775", ptr %3, i32 0, i32 0
  %5 = load ptr, ptr %4, align 8
  ret ptr %5
}

; Function Attrs: mustprogress nounwind uwtable
define hidden void @_ZN4llvm13CodeViewDebug20emitLexicalBlockListENS_8ArrayRefIPNS0_12LexicalBlockEEERKNS0_12FunctionInfoE(ptr noundef nonnull align 8 dereferenceable(1312) %0, ptr %1, i64 %2, ptr noundef nonnull align 8 dereferenceable(483) %3) #0 align 2 {
  %5 = alloca %"class.llvm::ArrayRef.775", align 8
  %6 = alloca ptr, align 8
  %7 = alloca ptr, align 8
  %8 = alloca ptr, align 8
  %9 = alloca ptr, align 8
  %10 = alloca ptr, align 8
  %11 = alloca ptr, align 8
  %12 = getelementptr inbounds nuw { ptr, i64 }, ptr %5, i32 0, i32 0
  store ptr %1, ptr %12, align 8
  %13 = getelementptr inbounds nuw { ptr, i64 }, ptr %5, i32 0, i32 1
  store i64 %2, ptr %13, align 8
  store ptr %0, ptr %6, align 8
  store ptr %3, ptr %7, align 8
  %14 = load ptr, ptr %6, align 8
  store ptr %5, ptr %8, align 8
  %15 = load ptr, ptr %8, align 8
  %16 = call noundef ptr @_ZNK4llvm8ArrayRefIPNS_13CodeViewDebug12LexicalBlockEE5beginEv(ptr noundef nonnull align 8 dereferenceable(16) %15)
  store ptr %16, ptr %9, align 8
  %17 = load ptr, ptr %8, align 8
  %18 = call noundef ptr @_ZNK4llvm8ArrayRefIPNS_13CodeViewDebug12LexicalBlockEE3endEv(ptr noundef nonnull align 8 dereferenceable(16) %17)
  store ptr %18, ptr %10, align 8
  br label %19

19:                                               ; preds = %28, %4
  %20 = load ptr, ptr %9, align 8
  %21 = load ptr, ptr %10, align 8
  %22 = icmp ne ptr %20, %21
  br i1 %22, label %23, label %31

23:                                               ; preds = %19
  %24 = load ptr, ptr %9, align 8
  %25 = load ptr, ptr %24, align 8
  store ptr %25, ptr %11, align 8
  %26 = load ptr, ptr %11, align 8
  %27 = load ptr, ptr %7, align 8
  call void @_ZN4llvm13CodeViewDebug16emitLexicalBlockERKNS0_12LexicalBlockERKNS0_12FunctionInfoE(ptr noundef nonnull align 8 dereferenceable(1312) %14, ptr noundef nonnull align 8 dereferenceable(184) %26, ptr noundef nonnull align 8 dereferenceable(483) %27)
  br label %28

28:                                               ; preds = %23
  %29 = load ptr, ptr %9, align 8
  %30 = getelementptr inbounds ptr, ptr %29, i32 1
  store ptr %30, ptr %9, align 8
  br label %19

31:                                               ; preds = %19
  ret void
}