; Function Attrs: mustprogress nounwind uwtable
define hidden void @_ZN4llvm13CodeViewDebug20emitLexicalBlockListENS_8ArrayRefIPNS0_12LexicalBlockEEERKNS0_12FunctionInfoE(ptr noundef nonnull align 8 dereferenceable(1312) %0, ptr readonly %1, i64 %2, ptr noundef nonnull readonly align 8 captures(none) dereferenceable(483) %3) local_unnamed_addr #0 align 2 {
  %5 = getelementptr inbounds ptr, ptr %1, i64 %2
  %.not10 = icmp eq i64 %2, 0
  br i1 %.not10, label %._crit_edge, label %.lr.ph

.lr.ph:                                           ; preds = %4, %.lr.ph
  %.011 = phi ptr [ %7, %.lr.ph ], [ %1, %4 ]
  %6 = load ptr, ptr %.011, align 8
  tail call void @_ZN4llvm13CodeViewDebug16emitLexicalBlockERKNS0_12LexicalBlockERKNS0_12FunctionInfoE(ptr noundef nonnull align 8 dereferenceable(1312) %0, ptr noundef nonnull align 8 dereferenceable(184) %6, ptr noundef nonnull align 8 dereferenceable(483) %3)
  %7 = getelementptr inbounds nuw i8, ptr %.011, i64 8
  %.not = icmp eq ptr %7, %5
  br i1 %.not, label %._crit_edge, label %.lr.ph

._crit_edge:                                      ; preds = %.lr.ph, %4
  ret void
}